; Function Attrs: mustprogress uwtable
define hidden noundef ptr @_ZN4cvc58internal6theory11quantifiers4inst15TriggerDatabase9mkTriggerENS0_12NodeTemplateILb1EEES6_bim(ptr noundef nonnull align 8 dereferenceable(120) %this, ptr nocapture noundef readonly %q, ptr noundef nonnull %n, i1 noundef zeroext %keepAll, i32 noundef %trOption, i64 noundef %useNVars) local_unnamed_addr #3 align 2 personality ptr @__gxx_personality_v0 {
if.else.i:
  %nodes = alloca %"class.std::vector.3", align 8
  %agg.tmp = alloca %"class.cvc5::internal::NodeTemplate", align 8
  call void @llvm.memset.p0.i64(ptr noundef nonnull align 8 dereferenceable(24) %nodes, i8 0, i64 24, i1 false)
  %_M_finish.i = getelementptr inbounds i8, ptr %nodes, i64 8
  invoke void @_ZNSt6vectorIN4cvc58internal12NodeTemplateILb1EEESaIS3_EE17_M_realloc_insertIJRKS3_EEEvN9__gnu_cxx17__normal_iteratorIPS3_S5_EEDpOT_(ptr noundef nonnull align 8 dereferenceable(24) %nodes, ptr null, ptr noundef nonnull align 8 dereferenceable(8) %n)
          to label %invoke.cont unwind label %lpad

invoke.cont:                                      ; preds = %if.else.i
  %0 = load ptr, ptr %q, align 8
  store ptr %0, ptr %agg.tmp, align 8
  %bf.load.i.i = load i64, ptr %0, align 8
  %bf.lshr.i.i = lshr i64 %bf.load.i.i, 40
  %1 = trunc i64 %bf.lshr.i.i to i32
  %bf.cast.i.i = and i32 %1, 1048575
  %cmp.i.i = icmp ult i32 %bf.cast.i.i, 1048574
  br i1 %cmp.i.i, label %if.then.i.i, label %if.else.i.i

if.then.i.i:                                      ; preds = %invoke.cont
  %bf.value.i.i = add i64 %bf.load.i.i, 1099511627776
  %bf.shl.i.i = and i64 %bf.value.i.i, 1152920405095219200
  %bf.clear7.i.i = and i64 %bf.load.i.i, -1152920405095219201
  %bf.set.i.i = or disjoint i64 %bf.shl.i.i, %bf.clear7.i.i
  store i64 %bf.set.i.i, ptr %0, align 8
  br label %invoke.cont2

if.else.i.i:                                      ; preds = %invoke.cont
  %cmp12.i.i = icmp eq i32 %bf.cast.i.i, 1048574
  br i1 %cmp12.i.i, label %if.then13.i.i, label %invoke.cont2

if.then13.i.i:                                    ; preds = %if.else.i.i
  %bf.set23.i.i = or i64 %bf.load.i.i, 1152920405095219200
  store i64 %bf.set23.i.i, ptr %0, align 8
  invoke void @_ZN4cvc58internal4expr9NodeValue20markRefCountMaxedOutEv(ptr noundef nonnull align 8 dereferenceable(16) %0)
          to label %invoke.cont2 unwind label %lpad

invoke.cont2:                                     ; preds = %if.else.i.i, %if.then.i.i, %if.then13.i.i
  %call = invoke noundef ptr @_ZN4cvc58internal6theory11quantifiers4inst15TriggerDatabase9mkTriggerENS0_12NodeTemplateILb1EEERKSt6vectorIS6_SaIS6_EEbim(ptr noundef nonnull align 8 dereferenceable(120) %this, ptr noundef nonnull %agg.tmp, ptr noundef nonnull align 8 dereferenceable(24) %nodes, i1 noundef zeroext %keepAll, i32 noundef %trOption, i64 noundef %useNVars)
          to label %invoke.cont4 unwind label %lpad3

invoke.cont4:                                     ; preds = %invoke.cont2
  %bf.load.i.i4 = load i64, ptr %0, align 8
  %2 = and i64 %bf.load.i.i4, 1152920405095219200
  %cmp.not.i.i = icmp eq i64 %2, 1152920405095219200
  br i1 %cmp.not.i.i, label %_ZN4cvc58internal12NodeTemplateILb1EED2Ev.exit, label %if.then.i.i5

if.then.i.i5:                                     ; preds = %invoke.cont4
  %bf.value.i.i6 = add i64 %bf.load.i.i4, 1152920405095219200
  %bf.shl.i.i7 = and i64 %bf.value.i.i6, 1152920405095219200
  %bf.clear7.i.i8 = and i64 %bf.load.i.i4, -1152920405095219201
  %bf.set.i.i9 = or disjoint i64 %bf.shl.i.i7, %bf.clear7.i.i8
  store i64 %bf.set.i.i9, ptr %0, align 8
  %cmp12.i.i10 = icmp eq i64 %bf.shl.i.i7, 0
  br i1 %cmp12.i.i10, label %if.then13.i.i11, label %_ZN4cvc58internal12NodeTemplateILb1EED2Ev.exit

if.then13.i.i11:                                  ; preds = %if.then.i.i5
  invoke void @_ZN4cvc58internal4expr9NodeValue15markForDeletionEv(ptr noundef nonnull align 8 dereferenceable(16) %0)
          to label %_ZN4cvc58internal12NodeTemplateILb1EED2Ev.exit unwind label %terminate.lpad.i

terminate.lpad.i:                                 ; preds = %if.then13.i.i11
  %3 = landingpad { ptr, i32 }
          catch ptr null
  %4 = extractvalue { ptr, i32 } %3, 0
  call void @__clang_call_terminate(ptr %4) #17
  unreachable

_ZN4cvc58internal12NodeTemplateILb1EED2Ev.exit:   ; preds = %invoke.cont4, %if.then.i.i5, %if.then13.i.i11
  %5 = load ptr, ptr %nodes, align 8
  %6 = load ptr, ptr %_M_finish.i, align 8
  %cmp.not3.i.i.i.i = icmp eq ptr %5, %6
  br i1 %cmp.not3.i.i.i.i, label %invoke.cont.i, label %for.body.i.i.i.i

for.body.i.i.i.i:                                 ; preds = %_ZN4cvc58internal12NodeTemplateILb1EED2Ev.exit, %_ZSt8_DestroyIN4cvc58internal12NodeTemplateILb1EEEEvPT_.exit.i.i.i.i
  %__first.addr.04.i.i.i.i = phi ptr [ %incdec.ptr.i.i.i.i, %_ZSt8_DestroyIN4cvc58internal12NodeTemplateILb1EEEEvPT_.exit.i.i.i.i ], [ %5, %_ZN4cvc58internal12NodeTemplateILb1EED2Ev.exit ]
  %7 = load ptr, ptr %__first.addr.04.i.i.i.i, align 8
  %bf.load.i.i.i.i.i.i.i = load i64, ptr %7, align 8
  %8 = and i64 %bf.load.i.i.i.i.i.i.i, 1152920405095219200
  %cmp.not.i.i.i.i.i.i.i = icmp eq i64 %8, 1152920405095219200
  br i1 %cmp.not.i.i.i.i.i.i.i, label %_ZSt8_DestroyIN4cvc58internal12NodeTemplateILb1EEEEvPT_.exit.i.i.i.i, label %if.then.i.i.i.i.i.i.i

if.then.i.i.i.i.i.i.i:                            ; preds = %for.body.i.i.i.i
  %bf.value.i.i.i.i.i.i.i = add i64 %bf.load.i.i.i.i.i.i.i, 1152920405095219200
  %bf.shl.i.i.i.i.i.i.i = and i64 %bf.value.i.i.i.i.i.i.i, 1152920405095219200
  %bf.clear7.i.i.i.i.i.i.i = and i64 %bf.load.i.i.i.i.i.i.i, -1152920405095219201
  %bf.set.i.i.i.i.i.i.i = or disjoint i64 %bf.shl.i.i.i.i.i.i.i, %bf.clear7.i.i.i.i.i.i.i
  store i64 %bf.set.i.i.i.i.i.i.i, ptr %7, align 8
  %cmp12.i.i.i.i.i.i.i = icmp eq i64 %bf.shl.i.i.i.i.i.i.i, 0
  br i1 %cmp12.i.i.i.i.i.i.i, label %if.then13.i.i.i.i.i.i.i, label %_ZSt8_DestroyIN4cvc58internal12NodeTemplateILb1EEEEvPT_.exit.i.i.i.i

if.then13.i.i.i.i.i.i.i:                          ; preds = %if.then.i.i.i.i.i.i.i
  invoke void @_ZN4cvc58internal4expr9NodeValue15markForDeletionEv(ptr noundef nonnull align 8 dereferenceable(16) %7)
          to label %_ZSt8_DestroyIN4cvc58internal12NodeTemplateILb1EEEEvPT_.exit.i.i.i.i unwind label %terminate.lpad.i.i.i.i.i.i

terminate.lpad.i.i.i.i.i.i:                       ; preds = %if.then13.i.i.i.i.i.i.i
  %9 = landingpad { ptr, i32 }
          catch ptr null
  %10 = extractvalue { ptr, i32 } %9, 0
  call void @__clang_call_terminate(ptr %10) #17
  unreachable

_ZSt8_DestroyIN4cvc58internal12NodeTemplateILb1EEEEvPT_.exit.i.i.i.i: ; preds = %if.then13.i.i.i.i.i.i.i, %if.then.i.i.i.i.i.i.i, %for.body.i.i.i.i
  %incdec.ptr.i.i.i.i = getelementptr inbounds i8, ptr %__first.addr.04.i.i.i.i, i64 8
  %cmp.not.i.i.i.i = icmp eq ptr %incdec.ptr.i.i.i.i, %6
  br i1 %cmp.not.i.i.i.i, label %invoke.contthread-pre-split.i, label %for.body.i.i.i.i, !llvm.loop !7

invoke.contthread-pre-split.i:                    ; preds = %_ZSt8_DestroyIN4cvc58internal12NodeTemplateILb1EEEEvPT_.exit.i.i.i.i
  %.pr.i = load ptr, ptr %nodes, align 8
  br label %invoke.cont.i

invoke.cont.i:                                    ; preds = %invoke.contthread-pre-split.i, %_ZN4cvc58internal12NodeTemplateILb1EED2Ev.exit
  %11 = phi ptr [ %.pr.i, %invoke.contthread-pre-split.i ], [ %5, %_ZN4cvc58internal12NodeTemplateILb1EED2Ev.exit ]
  %tobool.not.i.i.i = icmp eq ptr %11, null
  br i1 %tobool.not.i.i.i, label %_ZNSt6vectorIN4cvc58internal12NodeTemplateILb1EEESaIS3_EED2Ev.exit, label %if.then.i.i.i

if.then.i.i.i:                                    ; preds = %invoke.cont.i
  call void @_ZdlPv(ptr noundef nonnull %11) #16
  br label %_ZNSt6vectorIN4cvc58internal12NodeTemplateILb1EEESaIS3_EED2Ev.exit

_ZNSt6vectorIN4cvc58internal12NodeTemplateILb1EEESaIS3_EED2Ev.exit: ; preds = %invoke.cont.i, %if.then.i.i.i
  ret ptr %call

lpad:                                             ; preds = %if.then13.i.i, %if.else.i
  %12 = landingpad { ptr, i32 }
          cleanup
  br label %ehcleanup

lpad3:                                            ; preds = %invoke.cont2
  %13 = landingpad { ptr, i32 }
          cleanup
  call void @_ZN4cvc58internal12NodeTemplateILb1EED2Ev(ptr noundef nonnull align 8 dereferenceable(8) %agg.tmp) #15
  br label %ehcleanup

ehcleanup:                                        ; preds = %lpad3, %lpad
  %.pn = phi { ptr, i32 } [ %13, %lpad3 ], [ %12, %lpad ]
  call void @_ZNSt6vectorIN4cvc58internal12NodeTemplateILb1EEESaIS3_EED2Ev(ptr noundef nonnull align 8 dereferenceable(24) %nodes) #15
  resume { ptr, i32 } %.pn
}